; Function Attrs: mustprogress uwtable
define void @_ZN8proxygen11ProxyStatusC2ENS_10StatusTypeE(ptr noundef nonnull align 8 dereferenceable(100) %this, i32 noundef %statusType) unnamed_addr #0 align 2 personality ptr @__gxx_personality_v0 {
entry:
  store ptr getelementptr inbounds ({ [5 x ptr] }, ptr @_ZTVN8proxygen11ProxyStatusE, i64 0, i32 0, i64 2), ptr %this, align 8
  %pIdent_ = getelementptr inbounds i8, ptr %this, i64 8
  tail call void @_ZNSt7__cxx1112basic_stringIcSt11char_traitsIcESaIcEEC1Ev(ptr noundef nonnull align 8 dereferenceable(32) %pIdent_) #23
  %parameterMap.i = getelementptr inbounds i8, ptr %this, i64 40
  %_M_single_bucket.i.i.i = getelementptr inbounds i8, ptr %this, i64 88
  store ptr %_M_single_bucket.i.i.i, ptr %parameterMap.i, align 8
  %_M_bucket_count.i.i.i = getelementptr inbounds i8, ptr %this, i64 48
  store i64 1, ptr %_M_bucket_count.i.i.i, align 8
  %_M_before_begin.i.i.i = getelementptr inbounds i8, ptr %this, i64 56
  %_M_rehash_policy.i.i.i = getelementptr inbounds i8, ptr %this, i64 72
  tail call void @llvm.memset.p0.i64(ptr noundef nonnull align 8 dereferenceable(16) %_M_before_begin.i.i.i, i8 0, i64 16, i1 false)
  store float 1.000000e+00, ptr %_M_rehash_policy.i.i.i, align 8
  %_M_next_resize.i.i.i.i = getelementptr inbounds i8, ptr %this, i64 80
  tail call void @llvm.memset.p0.i64(ptr noundef nonnull align 8 dereferenceable(16) %_M_next_resize.i.i.i.i, i8 0, i64 16, i1 false)
  %statusType_ = getelementptr inbounds i8, ptr %this, i64 96
  store i32 %statusType, ptr %statusType_, align 8
  %call = invoke noundef ptr @_ZN8proxygen19getStatusTypeStringENS_10StatusTypeE(i32 noundef %statusType)
          to label %invoke.cont unwind label %lpad

invoke.cont:                                      ; preds = %entry
  %call5 = invoke noundef nonnull align 8 dereferenceable(32) ptr @_ZNSt7__cxx1112basic_stringIcSt11char_traitsIcESaIcEEaSEPKc(ptr noundef nonnull align 8 dereferenceable(32) %pIdent_, ptr noundef %call)
          to label %invoke.cont4 unwind label %lpad

invoke.cont4:                                     ; preds = %invoke.cont
  ret void

lpad:                                             ; preds = %invoke.cont, %entry
  %0 = landingpad { ptr, i32 }
          cleanup
  tail call void @_ZN8proxygen17StructuredHeaders23ParameterisedIdentifierD2Ev(ptr noundef nonnull align 8 dereferenceable(88) %pIdent_) #23
  resume { ptr, i32 } %0
}